; Function Attrs: mustprogress nofree norecurse nosync nounwind willreturn memory(argmem: readwrite) uwtable
define hidden { i64, i64 } @_ZN10duckdb_re28Compiler8PreVisitEPNS_6RegexpENS_4FragEPb(ptr noundef nonnull readonly align 8 captures(none) dereferenceable(228) %0, ptr readnone captures(none) %1, i64 %2, i64 %3, ptr noundef writeonly captures(none) %4) unnamed_addr #15 align 2 {
  %6 = alloca %"struct.duckdb_re2::Frag", align 8
  %7 = getelementptr inbounds nuw i8, ptr %0, i64 104
  %8 = load i8, ptr %7, align 8, !tbaa !49, !range !56, !noundef !57
  %9 = trunc nuw i8 %8 to i1
  br i1 %9, label %10, label %11

10:                                               ; preds = %5
  store i8 1, ptr %4, align 1, !tbaa !78
  br label %11

11:                                               ; preds = %10, %5
  store i32 0, ptr %6, align 8, !tbaa !71
  %.4..4..4..sroa_idx = getelementptr inbounds nuw i8, ptr %6, i64 4
  store i64 0, ptr %.4..4..4..sroa_idx, align 4
  %.12..12..12..sroa_idx = getelementptr inbounds nuw i8, ptr %6, i64 12
  store i8 0, ptr %.12..12..12..sroa_idx, align 4, !tbaa !72
  %.0..0..0..fca.0.load = load i64, ptr %6, align 8
  %.fca.0.insert = insertvalue { i64, i64 } poison, i64 %.0..0..0..fca.0.load, 0
  %.8..8..8..fca.1.gep.sroa_idx = getelementptr inbounds nuw i8, ptr %6, i64 8
  %.8..8..8..fca.1.load = load i64, ptr %.8..8..8..fca.1.gep.sroa_idx, align 8
  %.fca.1.insert = insertvalue { i64, i64 } %.fca.0.insert, i64 %.8..8..8..fca.1.load, 1
  ret { i64, i64 } %.fca.1.insert
}